; Function Attrs: mustprogress nounwind uwtable
define internal void @_ZN7Imf_3_4L15ostream_destroyEPK19_priv_exr_context_tPvi(ptr readnone captures(none) %0, ptr noundef %1, i32 %2) #3 {
  %4 = icmp eq ptr %1, null
  br i1 %4, label %6, label %5

5:                                                ; preds = %3
  tail call void @_ZdlPvm(ptr noundef nonnull %1, i64 noundef 56) #15
  br label %6

6:                                                ; preds = %5, %3
  ret void
}